target datalayout = "e-m:e-p270:32:32-p271:32:32-p272:64:64-i64:64-i128:128-f80:128-n8:16:32:64-S128"
target triple = "x86_64-unknown-linux-gnu"

%struct.QIOChannelWebsock = type { %struct.QIOChannel, ptr, %struct.Buffer, %struct.Buffer, %struct.Buffer, i64, i64, %union.QIOChannelWebsockMask, i32, ptr, i32, i8 }
%struct.QIOChannel = type { %struct.Object, i32, ptr, ptr, ptr, ptr, ptr, i8 }
%struct.Object = type { ptr, ptr, ptr, i32, ptr }
%struct.Buffer = type { ptr, i64, i64, i64, ptr }
%union.QIOChannelWebsockMask = type { i32 }

@.str = private unnamed_addr constant [20 x i8] c"qio-channel-websock\00", align 1
@.str.1 = private unnamed_addr constant [107 x i8] c"/home/dtcxzyw/WorkSpace/Projects/compilers/llvm-opt-benchmark/bench/qemu/qemu/include/io/channel-websock.h\00", align 1
@__func__.QIO_CHANNEL_WEBSOCK = private unnamed_addr constant [20 x i8] c"QIO_CHANNEL_WEBSOCK\00", align 1

; Function Attrs: nounwind sspstrong uwtable
define internal void @qio_channel_websock_unset_watch(ptr noundef %ioc) #0 {
entry:
  %ioc.addr = alloca ptr, align 8
  store ptr %ioc, ptr %ioc.addr, align 8
  %0 = load ptr, ptr %ioc.addr, align 8
  %io_tag = getelementptr inbounds %struct.QIOChannelWebsock, ptr %0, i32 0, i32 8
  %1 = load i32, ptr %io_tag, align 4
  %tobool = icmp ne i32 %1, 0
  br i1 %tobool, label %if.then, label %if.end

if.then:                                          ; preds = %entry
  %2 = load ptr, ptr %ioc.addr, align 8
  %io_tag1 = getelementptr inbounds %struct.QIOChannelWebsock, ptr %2, i32 0, i32 8
  %3 = load i32, ptr %io_tag1, align 4
  %call = call i32 @g_source_remove(i32 noundef %3)
  %4 = load ptr, ptr %ioc.addr, align 8
  %io_tag2 = getelementptr inbounds %struct.QIOChannelWebsock, ptr %4, i32 0, i32 8
  store i32 0, ptr %io_tag2, align 4
  br label %if.end

if.end:                                           ; preds = %if.then, %entry
  ret void
}

; Function Attrs: nounwind sspstrong uwtable
define internal void @qio_channel_websock_set_watch(ptr noundef %ioc) #0 {
entry:
  %ioc.addr = alloca ptr, align 8
  %cond = alloca i32, align 4
  store ptr %ioc, ptr %ioc.addr, align 8
  store i32 0, ptr %cond, align 4
  %0 = load ptr, ptr %ioc.addr, align 8
  call void @qio_channel_websock_unset_watch(ptr noundef %0)
  %1 = load ptr, ptr %ioc.addr, align 8
  %io_err = getelementptr inbounds %struct.QIOChannelWebsock, ptr %1, i32 0, i32 9
  %2 = load ptr, ptr %io_err, align 8
  %tobool = icmp ne ptr %2, null
  br i1 %tobool, label %if.then, label %if.end

if.then:                                          ; preds = %entry
  br label %if.end12

if.end:                                           ; preds = %entry
  %3 = load ptr, ptr %ioc.addr, align 8
  %encoutput = getelementptr inbounds %struct.QIOChannelWebsock, ptr %3, i32 0, i32 3
  %offset = getelementptr inbounds %struct.Buffer, ptr %encoutput, i32 0, i32 2
  %4 = load i64, ptr %offset, align 8
  %tobool1 = icmp ne i64 %4, 0
  br i1 %tobool1, label %if.then2, label %if.end3

if.then2:                                         ; preds = %if.end
  %5 = load i32, ptr %cond, align 4
  %or = or i32 %5, 4
  store i32 %or, ptr %cond, align 4
  br label %if.end3

if.end3:                                          ; preds = %if.then2, %if.end
  %6 = load ptr, ptr %ioc.addr, align 8
  %encinput = getelementptr inbounds %struct.QIOChannelWebsock, ptr %6, i32 0, i32 2
  %offset4 = getelementptr inbounds %struct.Buffer, ptr %encinput, i32 0, i32 2
  %7 = load i64, ptr %offset4, align 8
  %cmp = icmp ult i64 %7, 8192
  br i1 %cmp, label %land.lhs.true, label %if.end8

land.lhs.true:                                    ; preds = %if.end3
  %8 = load ptr, ptr %ioc.addr, align 8
  %io_eof = getelementptr inbounds %struct.QIOChannelWebsock, ptr %8, i32 0, i32 10
  %9 = load i32, ptr %io_eof, align 8
  %tobool5 = icmp ne i32 %9, 0
  br i1 %tobool5, label %if.end8, label %if.then6

if.then6:                                         ; preds = %land.lhs.true
  %10 = load i32, ptr %cond, align 4
  %or7 = or i32 %10, 1
  store i32 %or7, ptr %cond, align 4
  br label %if.end8

if.end8:                                          ; preds = %if.then6, %land.lhs.true, %if.end3
  %11 = load i32, ptr %cond, align 4
  %tobool9 = icmp ne i32 %11, 0
  br i1 %tobool9, label %if.then10, label %if.end12

if.then10:                                        ; preds = %if.end8
  %12 = load ptr, ptr %ioc.addr, align 8
  %call = call ptr @object_ref(ptr noundef %12)
  %13 = load ptr, ptr %ioc.addr, align 8
  %master = getelementptr inbounds %struct.QIOChannelWebsock, ptr %13, i32 0, i32 1
  %14 = load ptr, ptr %master, align 8
  %15 = load i32, ptr %cond, align 4
  %16 = load ptr, ptr %ioc.addr, align 8
  %call11 = call i32 @qio_channel_add_watch(ptr noundef %14, i32 noundef %15, ptr noundef @qio_channel_websock_flush, ptr noundef %16, ptr noundef @qio_channel_websock_flush_free)
  %17 = load ptr, ptr %ioc.addr, align 8
  %io_tag = getelementptr inbounds %struct.QIOChannelWebsock, ptr %17, i32 0, i32 8
  store i32 %call11, ptr %io_tag, align 4
  br label %if.end12

if.end12:                                         ; preds = %if.then10, %if.end8, %if.then
  ret void
}

; Function Attrs: nounwind sspstrong uwtable
define internal i64 @qio_channel_websock_write_wire(ptr noundef %ioc, ptr noundef %errp) #0 {
entry:
  %retval = alloca i64, align 8
  %ioc.addr = alloca ptr, align 8
  %errp.addr = alloca ptr, align 8
  %ret = alloca i64, align 8
  %done = alloca i64, align 8
  store ptr %ioc, ptr %ioc.addr, align 8
  store ptr %errp, ptr %errp.addr, align 8
  store i64 0, ptr %done, align 8
  br label %while.cond

while.cond:                                       ; preds = %if.end14, %entry
  %0 = load ptr, ptr %ioc.addr, align 8
  %encoutput = getelementptr inbounds %struct.QIOChannelWebsock, ptr %0, i32 0, i32 3
  %offset = getelementptr inbounds %struct.Buffer, ptr %encoutput, i32 0, i32 2
  %1 = load i64, ptr %offset, align 8
  %cmp = icmp ugt i64 %1, 0
  br i1 %cmp, label %while.body, label %while.end

while.body:                                       ; preds = %while.cond
  %2 = load ptr, ptr %ioc.addr, align 8
  %master = getelementptr inbounds %struct.QIOChannelWebsock, ptr %2, i32 0, i32 1
  %3 = load ptr, ptr %master, align 8
  %4 = load ptr, ptr %ioc.addr, align 8
  %encoutput1 = getelementptr inbounds %struct.QIOChannelWebsock, ptr %4, i32 0, i32 3
  %buffer = getelementptr inbounds %struct.Buffer, ptr %encoutput1, i32 0, i32 4
  %5 = load ptr, ptr %buffer, align 8
  %6 = load ptr, ptr %ioc.addr, align 8
  %encoutput2 = getelementptr inbounds %struct.QIOChannelWebsock, ptr %6, i32 0, i32 3
  %offset3 = getelementptr inbounds %struct.Buffer, ptr %encoutput2, i32 0, i32 2
  %7 = load i64, ptr %offset3, align 8
  %8 = load ptr, ptr %errp.addr, align 8
  %call = call i64 @qio_channel_write(ptr noundef %3, ptr noundef %5, i64 noundef %7, ptr noundef %8)
  store i64 %call, ptr %ret, align 8
  %9 = load i64, ptr %ret, align 8
  %cmp4 = icmp slt i64 %9, 0
  br i1 %cmp4, label %if.then, label %if.end

if.then:                                          ; preds = %while.body
  %10 = load i64, ptr %ret, align 8
  %cmp5 = icmp eq i64 %10, -2
  br i1 %cmp5, label %land.lhs.true, label %if.else

land.lhs.true:                                    ; preds = %if.then
  %11 = load i64, ptr %done, align 8
  %cmp6 = icmp sgt i64 %11, 0
  br i1 %cmp6, label %if.then7, label %if.else

if.then7:                                         ; preds = %land.lhs.true
  %12 = load i64, ptr %done, align 8
  store i64 %12, ptr %retval, align 8
  br label %return

if.else:                                          ; preds = %land.lhs.true, %if.then
  %13 = load i64, ptr %ret, align 8
  store i64 %13, ptr %retval, align 8
  br label %return

if.end:                                           ; preds = %while.body
  %14 = load ptr, ptr %ioc.addr, align 8
  %encoutput8 = getelementptr inbounds %struct.QIOChannelWebsock, ptr %14, i32 0, i32 3
  %15 = load i64, ptr %ret, align 8
  call void @buffer_advance(ptr noundef %encoutput8, i64 noundef %15)
  %16 = load i64, ptr %ret, align 8
  %17 = load i64, ptr %done, align 8
  %add = add i64 %17, %16
  store i64 %add, ptr %done, align 8
  %18 = load ptr, ptr %ioc.addr, align 8
  %pong_remain = getelementptr inbounds %struct.QIOChannelWebsock, ptr %18, i32 0, i32 6
  %19 = load i64, ptr %pong_remain, align 8
  %20 = load i64, ptr %ret, align 8
  %cmp9 = icmp ult i64 %19, %20
  br i1 %cmp9, label %if.then10, label %if.else12

if.then10:                                        ; preds = %if.end
  %21 = load ptr, ptr %ioc.addr, align 8
  %pong_remain11 = getelementptr inbounds %struct.QIOChannelWebsock, ptr %21, i32 0, i32 6
  store i64 0, ptr %pong_remain11, align 8
  br label %if.end14

if.else12:                                        ; preds = %if.end
  %22 = load i64, ptr %ret, align 8
  %23 = load ptr, ptr %ioc.addr, align 8
  %pong_remain13 = getelementptr inbounds %struct.QIOChannelWebsock, ptr %23, i32 0, i32 6
  %24 = load i64, ptr %pong_remain13, align 8
  %sub = sub i64 %24, %22
  store i64 %sub, ptr %pong_remain13, align 8
  br label %if.end14

if.end14:                                         ; preds = %if.else12, %if.then10
  br label %while.cond, !llvm.loop !13

while.end:                                        ; preds = %while.cond
  %25 = load i64, ptr %done, align 8
  store i64 %25, ptr %retval, align 8
  br label %return

return:                                           ; preds = %while.end, %if.else, %if.then7
  %26 = load i64, ptr %retval, align 8
  ret i64 %26
}

; Function Attrs: nounwind sspstrong uwtable
define internal ptr @QIO_CHANNEL_WEBSOCK(ptr noundef %obj) #0 {
entry:
  %obj.addr = alloca ptr, align 8
  store ptr %obj, ptr %obj.addr, align 8
  %0 = load ptr, ptr %obj.addr, align 8
  %call = call ptr @object_dynamic_cast_assert(ptr noundef %0, ptr noundef @.str, ptr noundef @.str.1, i32 noundef 30, ptr noundef @__func__.QIO_CHANNEL_WEBSOCK)
  ret ptr %call
}

; Function Attrs: nounwind sspstrong uwtable
define internal i32 @qio_channel_websock_flush(ptr noundef %ioc, i32 noundef %condition, ptr noundef %user_data) #0 {
entry:
  %ioc.addr = alloca ptr, align 8
  %condition.addr = alloca i32, align 4
  %user_data.addr = alloca ptr, align 8
  %wioc = alloca ptr, align 8
  %ret = alloca i64, align 8
  store ptr %ioc, ptr %ioc.addr, align 8
  store i32 %condition, ptr %condition.addr, align 4
  store ptr %user_data, ptr %user_data.addr, align 8
  %0 = load ptr, ptr %user_data.addr, align 8
  %call = call ptr @QIO_CHANNEL_WEBSOCK(ptr noundef %0)
  store ptr %call, ptr %wioc, align 8
  %1 = load i32, ptr %condition.addr, align 4
  %and = and i32 %1, 4
  %tobool = icmp ne i32 %and, 0
  br i1 %tobool, label %if.then, label %if.end3

if.then:                                          ; preds = %entry
  %2 = load ptr, ptr %wioc, align 8
  %3 = load ptr, ptr %wioc, align 8
  %io_err = getelementptr inbounds %struct.QIOChannelWebsock, ptr %3, i32 0, i32 9
  %call1 = call i64 @qio_channel_websock_write_wire(ptr noundef %2, ptr noundef %io_err)
  store i64 %call1, ptr %ret, align 8
  %4 = load i64, ptr %ret, align 8
  %cmp = icmp slt i64 %4, 0
  br i1 %cmp, label %if.then2, label %if.end

if.then2:                                         ; preds = %if.then
  br label %cleanup

if.end:                                           ; preds = %if.then
  br label %if.end3

if.end3:                                          ; preds = %if.end, %entry
  %5 = load i32, ptr %condition.addr, align 4
  %and4 = and i32 %5, 1
  %tobool5 = icmp ne i32 %and4, 0
  br i1 %tobool5, label %if.then6, label %if.end12

if.then6:                                         ; preds = %if.end3
  %6 = load ptr, ptr %wioc, align 8
  %7 = load ptr, ptr %wioc, align 8
  %io_err7 = getelementptr inbounds %struct.QIOChannelWebsock, ptr %7, i32 0, i32 9
  %call8 = call i64 @qio_channel_websock_read_wire(ptr noundef %6, ptr noundef %io_err7)
  store i64 %call8, ptr %ret, align 8
  %8 = load i64, ptr %ret, align 8
  %cmp9 = icmp slt i64 %8, 0
  br i1 %cmp9, label %if.then10, label %if.end11

if.then10:                                        ; preds = %if.then6
  br label %cleanup

if.end11:                                         ; preds = %if.then6
  br label %if.end12

if.end12:                                         ; preds = %if.end11, %if.end3
  br label %cleanup

cleanup:                                          ; preds = %if.end12, %if.then10, %if.then2
  %9 = load ptr, ptr %wioc, align 8
  call void @qio_channel_websock_set_watch(ptr noundef %9)
  ret i32 0
}