; Function Attrs: nounwind sspstrong uwtable
define internal noundef i32 @qio_channel_websock_flush(ptr readnone captures(none) %ioc, i32 noundef %condition, ptr noundef %user_data) #0 {
entry:
  %call.i = tail call ptr @object_dynamic_cast_assert(ptr noundef %user_data, ptr noundef nonnull @.str, ptr noundef nonnull @.str.1, i32 noundef 30, ptr noundef nonnull @__func__.QIO_CHANNEL_WEBSOCK) #15
  %and = and i32 %condition, 4
  %tobool.not = icmp eq i32 %and, 0
  br i1 %tobool.not, label %if.end3, label %if.then

if.then:                                          ; preds = %entry
  %io_err = getelementptr inbounds nuw i8, ptr %call.i, i64 248
  %encoutput.i = getelementptr inbounds nuw i8, ptr %call.i, i64 144
  %offset.i = getelementptr inbounds nuw i8, ptr %call.i, i64 160
  %0 = load i64, ptr %offset.i, align 8
  %cmp.not19.i = icmp eq i64 %0, 0
  br i1 %cmp.not19.i, label %qio_channel_websock_write_wire.exit, label %while.body.lr.ph.i

while.body.lr.ph.i:                               ; preds = %if.then
  %master.i = getelementptr inbounds nuw i8, ptr %call.i, i64 96
  %buffer.i = getelementptr inbounds nuw i8, ptr %call.i, i64 176
  %pong_remain.i = getelementptr inbounds nuw i8, ptr %call.i, i64 232
  br label %while.body.i

while.body.i:                                     ; preds = %if.end.i, %while.body.lr.ph.i
  %1 = phi i64 [ %0, %while.body.lr.ph.i ], [ %5, %if.end.i ]
  %done.020.i = phi i64 [ 0, %while.body.lr.ph.i ], [ %add.i, %if.end.i ]
  %2 = load ptr, ptr %master.i, align 8
  %3 = load ptr, ptr %buffer.i, align 8
  %call.i6 = tail call i64 @qio_channel_write(ptr noundef %2, ptr noundef %3, i64 noundef %1, ptr noundef nonnull %io_err) #15
  %cmp4.i = icmp slt i64 %call.i6, 0
  br i1 %cmp4.i, label %if.then.i, label %if.end.i

if.then.i:                                        ; preds = %while.body.i
  %cmp5.i = icmp eq i64 %call.i6, -2
  %cmp6.i = icmp sgt i64 %done.020.i, 0
  %or.cond.i = select i1 %cmp5.i, i1 %cmp6.i, i1 false
  %done.0.call.i = select i1 %or.cond.i, i64 %done.020.i, i64 %call.i6
  br label %qio_channel_websock_write_wire.exit

if.end.i:                                         ; preds = %while.body.i
  tail call void @buffer_advance(ptr noundef nonnull %encoutput.i, i64 noundef %call.i6) #15
  %add.i = add i64 %call.i6, %done.020.i
  %4 = load i64, ptr %pong_remain.i, align 8
  %storemerge.i = tail call i64 @llvm.usub.sat.i64(i64 %4, i64 %call.i6)
  store i64 %storemerge.i, ptr %pong_remain.i, align 8
  %5 = load i64, ptr %offset.i, align 8
  %cmp.not.i = icmp eq i64 %5, 0
  br i1 %cmp.not.i, label %qio_channel_websock_write_wire.exit, label %while.body.i, !llvm.loop !10

qio_channel_websock_write_wire.exit:              ; preds = %if.end.i, %if.then, %if.then.i
  %retval.0.i = phi i64 [ %done.0.call.i, %if.then.i ], [ 0, %if.then ], [ %add.i, %if.end.i ]
  %cmp = icmp slt i64 %retval.0.i, 0
  %and4 = and i32 %condition, 1
  %tobool5.not = icmp eq i32 %and4, 0
  %or.cond = or i1 %tobool5.not, %cmp
  br i1 %or.cond, label %cleanup, label %if.then6

if.end3:                                          ; preds = %entry
  %and4.old = and i32 %condition, 1
  %tobool5.not.old = icmp eq i32 %and4.old, 0
  br i1 %tobool5.not.old, label %cleanup, label %if.then6

if.then6:                                         ; preds = %qio_channel_websock_write_wire.exit, %if.end3
  %io_err7 = getelementptr inbounds nuw i8, ptr %call.i, i64 248
  %call8 = tail call fastcc i64 @qio_channel_websock_read_wire(ptr noundef %call.i, ptr noundef nonnull %io_err7)
  br label %cleanup

cleanup:                                          ; preds = %if.then6, %if.end3, %qio_channel_websock_write_wire.exit
  %io_tag.i.i = getelementptr inbounds nuw i8, ptr %call.i, i64 244
  %6 = load i32, ptr %io_tag.i.i, align 4
  %tobool.not.i.i = icmp eq i32 %6, 0
  br i1 %tobool.not.i.i, label %qio_channel_websock_unset_watch.exit.i, label %if.then.i.i

if.then.i.i:                                      ; preds = %cleanup
  %call.i.i = tail call i32 @g_source_remove(i32 noundef %6) #15
  store i32 0, ptr %io_tag.i.i, align 4
  br label %qio_channel_websock_unset_watch.exit.i

qio_channel_websock_unset_watch.exit.i:           ; preds = %if.then.i.i, %cleanup
  %io_err.i = getelementptr inbounds nuw i8, ptr %call.i, i64 248
  %7 = load ptr, ptr %io_err.i, align 8
  %tobool.not.i = icmp eq ptr %7, null
  br i1 %tobool.not.i, label %if.end.i7, label %qio_channel_websock_set_watch.exit

if.end.i7:                                        ; preds = %qio_channel_websock_unset_watch.exit.i
  %offset.i8 = getelementptr inbounds nuw i8, ptr %call.i, i64 160
  %8 = load i64, ptr %offset.i8, align 8
  %tobool1.not.i = icmp ne i64 %8, 0
  %offset4.i = getelementptr inbounds nuw i8, ptr %call.i, i64 120
  %9 = load i64, ptr %offset4.i, align 8
  %cmp.i = icmp ult i64 %9, 8192
  br i1 %cmp.i, label %land.lhs.true.i, label %if.end8.i

land.lhs.true.i:                                  ; preds = %if.end.i7
  %spec.select.i = select i1 %tobool1.not.i, i32 4, i32 0
  %io_eof.i = getelementptr inbounds nuw i8, ptr %call.i, i64 256
  %10 = load i32, ptr %io_eof.i, align 8
  %tobool5.not.i = icmp eq i32 %10, 0
  %brmerge.i = select i1 %tobool5.not.i, i1 true, i1 %tobool1.not.i
  %or7.i = zext i1 %tobool5.not.i to i32
  %or7.mux.i = or disjoint i32 %spec.select.i, %or7.i
  br i1 %brmerge.i, label %if.then10.i, label %qio_channel_websock_set_watch.exit

if.end8.i:                                        ; preds = %if.end.i7
  br i1 %tobool1.not.i, label %if.then10.i, label %qio_channel_websock_set_watch.exit

if.then10.i:                                      ; preds = %if.end8.i, %land.lhs.true.i
  %cond.115.i = phi i32 [ 4, %if.end8.i ], [ %or7.mux.i, %land.lhs.true.i ]
  %call.i9 = tail call ptr @object_ref(ptr noundef nonnull %call.i) #15
  %master.i10 = getelementptr inbounds nuw i8, ptr %call.i, i64 96
  %11 = load ptr, ptr %master.i10, align 8
  %call11.i = tail call i32 @qio_channel_add_watch(ptr noundef %11, i32 noundef %cond.115.i, ptr noundef nonnull @qio_channel_websock_flush, ptr noundef nonnull %call.i, ptr noundef nonnull @qio_channel_websock_flush_free) #15
  store i32 %call11.i, ptr %io_tag.i.i, align 4
  br label %qio_channel_websock_set_watch.exit

qio_channel_websock_set_watch.exit:               ; preds = %qio_channel_websock_unset_watch.exit.i, %land.lhs.true.i, %if.end8.i, %if.then10.i
  ret i32 0
}